; Function Attrs: nounwind uwtable
define hidden void @zif_xmlwriter_start_document(ptr noundef %0, ptr nocapture noundef writeonly %1) #0 {
  %3 = alloca ptr, align 8
  %4 = alloca ptr, align 8
  %5 = alloca ptr, align 8
  %6 = alloca i64, align 8
  %7 = alloca i64, align 8
  %8 = alloca i64, align 8
  %9 = alloca ptr, align 8
  store ptr null, ptr %3, align 8
  store ptr null, ptr %4, align 8
  store ptr null, ptr %5, align 8
  %10 = getelementptr inbounds i8, ptr %0, i64 32
  %11 = getelementptr inbounds i8, ptr %0, i64 44
  %12 = load i32, ptr %11, align 4
  %13 = getelementptr inbounds i8, ptr %0, i64 40
  %14 = load i8, ptr %13, align 8
  %15 = icmp eq i8 %14, 8
  %16 = select i1 %15, ptr %10, ptr null
  %17 = load ptr, ptr @xmlwriter_class_entry_ce, align 8
  %18 = call i32 (i32, ptr, ptr, ...) @zend_parse_method_parameters(i32 noundef %12, ptr noundef %16, ptr noundef nonnull @.str.15, ptr noundef nonnull %9, ptr noundef %17, ptr noundef nonnull %3, ptr noundef nonnull %6, ptr noundef nonnull %4, ptr noundef nonnull %7, ptr noundef nonnull %5, ptr noundef nonnull %8) #11
  %19 = icmp eq i32 %18, -1
  br i1 %19, label %20, label %23

20:                                               ; preds = %2
  %21 = load ptr, ptr getelementptr inbounds (%struct._zend_executor_globals, ptr @executor_globals, i64 0, i32 50), align 8
  %22 = icmp ne ptr %21, null
  call void @llvm.assume(i1 %22)
  br label %38

23:                                               ; preds = %2
  %24 = load ptr, ptr %9, align 8
  %25 = load ptr, ptr %24, align 8
  %26 = getelementptr inbounds i8, ptr %25, i64 -16
  %27 = load ptr, ptr %26, align 8
  %.not = icmp eq ptr %27, null
  br i1 %.not, label %28, label %31

28:                                               ; preds = %23
  call void (ptr, ptr, ...) @zend_throw_error(ptr noundef null, ptr noundef nonnull @.str.4) #11
  %29 = load ptr, ptr getelementptr inbounds (%struct._zend_executor_globals, ptr @executor_globals, i64 0, i32 50), align 8
  %30 = icmp ne ptr %29, null
  call void @llvm.assume(i1 %30)
  br label %38

31:                                               ; preds = %23
  %32 = load ptr, ptr %3, align 8
  %33 = load ptr, ptr %4, align 8
  %34 = load ptr, ptr %5, align 8
  %35 = call i32 @xmlTextWriterStartDocument(ptr noundef nonnull %27, ptr noundef %32, ptr noundef %33, ptr noundef %34) #11
  %.not8 = icmp eq i32 %35, -1
  %36 = select i1 %.not8, i32 2, i32 3
  %37 = getelementptr inbounds i8, ptr %1, i64 8
  store i32 %36, ptr %37, align 8
  br label %38

38:                                               ; preds = %31, %28, %20
  ret void
}